target datalayout = "e-m:e-p270:32:32-p271:32:32-p272:64:64-i64:64-i128:128-f80:128-n8:16:32:64-S128"
target triple = "x86_64-pc-linux-gnu"

%struct._psqlSettings = type { ptr, i32, ptr, i8, ptr, ptr, %struct.printQueryOpt, ptr, ptr, ptr, i8, i8, i32, i32, ptr, ptr, i8, [4 x ptr], i8, i32, ptr, i8, i32, ptr, ptr, i64, i64, i8, ptr, ptr, ptr, i8, i8, i8, i8, i8, i8, i8, i32, i32, i32, i32, i32, i32, i32, i32, ptr, ptr, ptr, i32, i8, i32 }
%struct.printQueryOpt = type { %struct.printTableOpt, ptr, ptr, ptr, i8, ptr, i32 }
%struct.printTableOpt = type { i32, i16, i32, i32, i16, i16, i32, i8, i8, i8, i8, i64, ptr, %struct.separator, %struct.separator, [2 x i8], i8, ptr, i32, i32, i32, i32, i32, i32 }
%struct.separator = type { ptr, i8 }

@pset = external global %struct._psqlSettings, align 8
@.str.3 = private unnamed_addr constant [15 x i8] c"server_version\00", align 1
@.str.4 = private unnamed_addr constant [20 x i8] c"%s (%s, server %s)\0A\00", align 1
@.str.5 = private unnamed_addr constant [8 x i8] c"18devel\00", align 1
@.str.6 = private unnamed_addr constant [9 x i8] c"%s (%s)\0A\00", align 1
@.str.7 = private unnamed_addr constant [100 x i8] c"WARNING: %s major version %s, server major version %s.\0A         Some psql features might not work.\0A\00", align 1
@.str.312 = private unnamed_addr constant [29 x i8] c"GSSAPI-encrypted connection\0A\00", align 1

; Function Attrs: nounwind uwtable
define internal void @printGSSInfo() #0 {
  %1 = load ptr, ptr @pset, align 8
  %2 = call i32 @PQgssEncInUse(ptr noundef %1)
  %3 = icmp ne i32 %2, 0
  br i1 %3, label %5, label %4

4:                                                ; preds = %0
  br label %7

5:                                                ; preds = %0
  %6 = call i32 (ptr, ...) @pg_printf(ptr noundef @.str.312)
  br label %7

7:                                                ; preds = %5, %4
  ret void
}

; Function Attrs: nounwind uwtable
define dso_local void @connection_warnings(i1 noundef zeroext %0) #0 {
  %2 = alloca i8, align 1
  %3 = alloca i32, align 4
  %4 = alloca [32 x i8], align 16
  %5 = alloca [32 x i8], align 16
  %6 = alloca ptr, align 8
  %7 = zext i1 %0 to i8
  store i8 %7, ptr %2, align 1
  %8 = load i8, ptr getelementptr inbounds nuw (%struct._psqlSettings, ptr @pset, i32 0, i32 33), align 2, !range !4, !noundef !5
  %9 = trunc i8 %8 to i1
  br i1 %9, label %57, label %10

10:                                               ; preds = %1
  %11 = load i8, ptr getelementptr inbounds nuw (%struct._psqlSettings, ptr @pset, i32 0, i32 18), align 8, !range !4, !noundef !5
  %12 = trunc i8 %11 to i1
  br i1 %12, label %57, label %13

13:                                               ; preds = %10
  call void @llvm.lifetime.start.p0(i64 4, ptr %3) #10
  store i32 180000, ptr %3, align 4
  call void @llvm.lifetime.start.p0(i64 32, ptr %4) #10
  call void @llvm.lifetime.start.p0(i64 32, ptr %5) #10
  %14 = load i32, ptr getelementptr inbounds nuw (%struct._psqlSettings, ptr @pset, i32 0, i32 22), align 4
  %15 = load i32, ptr %3, align 4
  %16 = icmp ne i32 %14, %15
  br i1 %16, label %17, label %31

17:                                               ; preds = %13
  call void @llvm.lifetime.start.p0(i64 8, ptr %6) #10
  %18 = load ptr, ptr @pset, align 8
  %19 = call ptr @PQparameterStatus(ptr noundef %18, ptr noundef @.str.3)
  store ptr %19, ptr %6, align 8
  %20 = load ptr, ptr %6, align 8
  %21 = icmp ne ptr %20, null
  br i1 %21, label %27, label %22

22:                                               ; preds = %17
  %23 = load i32, ptr getelementptr inbounds nuw (%struct._psqlSettings, ptr @pset, i32 0, i32 22), align 4
  %24 = getelementptr inbounds [32 x i8], ptr %5, i64 0, i64 0
  %25 = call ptr @formatPGVersionNumber(i32 noundef %23, i1 noundef zeroext true, ptr noundef %24, i64 noundef 32)
  %26 = getelementptr inbounds [32 x i8], ptr %5, i64 0, i64 0
  store ptr %26, ptr %6, align 8
  br label %27

27:                                               ; preds = %22, %17
  %28 = load ptr, ptr getelementptr inbounds nuw (%struct._psqlSettings, ptr @pset, i32 0, i32 23), align 8
  %29 = load ptr, ptr %6, align 8
  %30 = call i32 (ptr, ...) @pg_printf(ptr noundef @.str.4, ptr noundef %28, ptr noundef @.str.5, ptr noundef %29)
  call void @llvm.lifetime.end.p0(i64 8, ptr %6) #10
  br label %38

31:                                               ; preds = %13
  %32 = load i8, ptr %2, align 1, !range !4, !noundef !5
  %33 = trunc i8 %32 to i1
  br i1 %33, label %34, label %37

34:                                               ; preds = %31
  %35 = load ptr, ptr getelementptr inbounds nuw (%struct._psqlSettings, ptr @pset, i32 0, i32 23), align 8
  %36 = call i32 (ptr, ...) @pg_printf(ptr noundef @.str.6, ptr noundef %35, ptr noundef @.str.5)
  br label %37

37:                                               ; preds = %34, %31
  br label %38

38:                                               ; preds = %37, %27
  %39 = load i32, ptr getelementptr inbounds nuw (%struct._psqlSettings, ptr @pset, i32 0, i32 22), align 4
  %40 = sdiv i32 %39, 100
  %41 = load i32, ptr %3, align 4
  %42 = sdiv i32 %41, 100
  %43 = icmp sgt i32 %40, %42
  br i1 %43, label %47, label %44

44:                                               ; preds = %38
  %45 = load i32, ptr getelementptr inbounds nuw (%struct._psqlSettings, ptr @pset, i32 0, i32 22), align 4
  %46 = icmp slt i32 %45, 90200
  br i1 %46, label %47, label %56

47:                                               ; preds = %44, %38
  %48 = load ptr, ptr getelementptr inbounds nuw (%struct._psqlSettings, ptr @pset, i32 0, i32 23), align 8
  %49 = load i32, ptr %3, align 4
  %50 = getelementptr inbounds [32 x i8], ptr %4, i64 0, i64 0
  %51 = call ptr @formatPGVersionNumber(i32 noundef %49, i1 noundef zeroext false, ptr noundef %50, i64 noundef 32)
  %52 = load i32, ptr getelementptr inbounds nuw (%struct._psqlSettings, ptr @pset, i32 0, i32 22), align 4
  %53 = getelementptr inbounds [32 x i8], ptr %5, i64 0, i64 0
  %54 = call ptr @formatPGVersionNumber(i32 noundef %52, i1 noundef zeroext false, ptr noundef %53, i64 noundef 32)
  %55 = call i32 (ptr, ...) @pg_printf(ptr noundef @.str.7, ptr noundef %48, ptr noundef %51, ptr noundef %54)
  br label %56

56:                                               ; preds = %47, %44
  call void @printSSLInfo()
  call void @printGSSInfo()
  call void @llvm.lifetime.end.p0(i64 32, ptr %5) #10
  call void @llvm.lifetime.end.p0(i64 32, ptr %4) #10
  call void @llvm.lifetime.end.p0(i64 4, ptr %3) #10
  br label %57

57:                                               ; preds = %56, %10, %1
  ret void
}