; Function Attrs: nounwind uwtable
define dso_local void @connection_warnings(i1 noundef zeroext %0) local_unnamed_addr #0 {
  %2 = alloca [32 x i8], align 16
  %3 = alloca [32 x i8], align 16
  %4 = load i8, ptr getelementptr inbounds nuw (i8, ptr @pset, i64 402), align 2, !range !4, !noundef !5
  %5 = trunc nuw i8 %4 to i1
  br i1 %5, label %38, label %6

6:                                                ; preds = %1
  %7 = load i8, ptr getelementptr inbounds nuw (i8, ptr @pset, i64 312), align 8, !range !4, !noundef !5
  %8 = trunc nuw i8 %7 to i1
  br i1 %8, label %38, label %9

9:                                                ; preds = %6
  call void @llvm.lifetime.start.p0(i64 32, ptr nonnull %2) #16
  call void @llvm.lifetime.start.p0(i64 32, ptr nonnull %3) #16
  %10 = load i32, ptr getelementptr inbounds nuw (i8, ptr @pset, i64 332), align 4
  %.not = icmp eq i32 %10, 180000
  br i1 %.not, label %20, label %11

11:                                               ; preds = %9
  %12 = load ptr, ptr @pset, align 8
  %13 = tail call ptr @PQparameterStatus(ptr noundef %12, ptr noundef nonnull @.str.3) #16
  %.not7 = icmp eq ptr %13, null
  br i1 %.not7, label %14, label %17

14:                                               ; preds = %11
  %15 = load i32, ptr getelementptr inbounds nuw (i8, ptr @pset, i64 332), align 4
  %16 = call ptr @formatPGVersionNumber(i32 noundef %15, i1 noundef zeroext true, ptr noundef nonnull %3, i64 noundef 32) #16
  br label %17

17:                                               ; preds = %14, %11
  %.0 = phi ptr [ %13, %11 ], [ %3, %14 ]
  %18 = load ptr, ptr getelementptr inbounds nuw (i8, ptr @pset, i64 336), align 8
  %19 = call i32 (ptr, ...) @pg_printf(ptr noundef nonnull @.str.4, ptr noundef %18, ptr noundef nonnull @.str.5, ptr noundef nonnull %.0) #16
  br label %24

20:                                               ; preds = %9
  br i1 %0, label %21, label %24

21:                                               ; preds = %20
  %22 = load ptr, ptr getelementptr inbounds nuw (i8, ptr @pset, i64 336), align 8
  %23 = tail call i32 (ptr, ...) @pg_printf(ptr noundef nonnull @.str.6, ptr noundef %22, ptr noundef nonnull @.str.5) #16
  br label %24

24:                                               ; preds = %20, %21, %17
  %25 = load i32, ptr getelementptr inbounds nuw (i8, ptr @pset, i64 332), align 4
  %26 = add i32 %25, -180100
  %or.cond = icmp ult i32 %26, -89900
  br i1 %or.cond, label %27, label %33

27:                                               ; preds = %24
  %28 = load ptr, ptr getelementptr inbounds nuw (i8, ptr @pset, i64 336), align 8
  %29 = call ptr @formatPGVersionNumber(i32 noundef 180000, i1 noundef zeroext false, ptr noundef nonnull %2, i64 noundef 32) #16
  %30 = load i32, ptr getelementptr inbounds nuw (i8, ptr @pset, i64 332), align 4
  %31 = call ptr @formatPGVersionNumber(i32 noundef %30, i1 noundef zeroext false, ptr noundef nonnull %3, i64 noundef 32) #16
  %32 = call i32 (ptr, ...) @pg_printf(ptr noundef nonnull @.str.7, ptr noundef %28, ptr noundef %29, ptr noundef %31) #16
  br label %33

33:                                               ; preds = %24, %27
  call fastcc void @printSSLInfo()
  %34 = load ptr, ptr @pset, align 8
  %35 = call i32 @PQgssEncInUse(ptr noundef %34) #16
  %.not.i = icmp eq i32 %35, 0
  br i1 %.not.i, label %printGSSInfo.exit, label %36

36:                                               ; preds = %33
  %37 = call i32 (ptr, ...) @pg_printf(ptr noundef nonnull @.str.312) #16
  br label %printGSSInfo.exit

printGSSInfo.exit:                                ; preds = %33, %36
  call void @llvm.lifetime.end.p0(i64 32, ptr nonnull %3) #16
  call void @llvm.lifetime.end.p0(i64 32, ptr nonnull %2) #16
  br label %38

38:                                               ; preds = %printGSSInfo.exit, %6, %1
  ret void
}